target datalayout = "e-m:e-p270:32:32-p271:32:32-p272:64:64-i64:64-i128:128-f80:128-n8:16:32:64-S128"
target triple = "x86_64-pc-linux-gnu"

%struct.int_stack_t = type { ptr, i64, i64, i64 }
%struct.treegen_s = type { i32, ptr, %struct.int_stack_t, ptr }
%struct.tree_t = type { i32, i32, ptr }

; Function Attrs: inlinehint nounwind uwtable
define internal void @int_stack_noop_(i32 noundef %0) #3 {
  %2 = alloca i32, align 4
  store i32 %0, ptr %2, align 4, !tbaa !4
  ret void
}

; Function Attrs: inlinehint nounwind uwtable
define internal i32 @int_stack_get(ptr noundef %0, i64 noundef %1) #3 {
  %3 = alloca ptr, align 8
  %4 = alloca i64, align 8
  store ptr %0, ptr %3, align 8, !tbaa !8
  store i64 %1, ptr %4, align 8, !tbaa !46
  %5 = load ptr, ptr %3, align 8, !tbaa !8
  %6 = getelementptr inbounds nuw %struct.int_stack_t, ptr %5, i32 0, i32 0
  %7 = load ptr, ptr %6, align 8, !tbaa !94
  %8 = load ptr, ptr %3, align 8, !tbaa !8
  %9 = getelementptr inbounds nuw %struct.int_stack_t, ptr %8, i32 0, i32 1
  %10 = load i64, ptr %9, align 8, !tbaa !82
  %11 = load i64, ptr %4, align 8, !tbaa !46
  %12 = add i64 %10, %11
  %13 = load ptr, ptr %3, align 8, !tbaa !8
  %14 = getelementptr inbounds nuw %struct.int_stack_t, ptr %13, i32 0, i32 3
  %15 = load i64, ptr %14, align 8, !tbaa !95
  %16 = urem i64 %12, %15
  %17 = getelementptr inbounds nuw i32, ptr %7, i64 %16
  %18 = load i32, ptr %17, align 4, !tbaa !4
  ret i32 %18
}

; Function Attrs: inlinehint nounwind uwtable
define internal void @int_stack_clear(ptr noundef %0) #3 {
  %2 = alloca ptr, align 8
  %3 = alloca i64, align 8
  store ptr %0, ptr %2, align 8, !tbaa !8
  call void @llvm.lifetime.start.p0(i64 8, ptr %3) #11
  store i64 0, ptr %3, align 8, !tbaa !46
  br label %4

4:                                                ; preds = %18, %1
  %5 = load i64, ptr %3, align 8, !tbaa !46
  %6 = load ptr, ptr %2, align 8, !tbaa !8
  %7 = getelementptr inbounds nuw %struct.int_stack_t, ptr %6, i32 0, i32 2
  %8 = load i64, ptr %7, align 8, !tbaa !80
  %9 = icmp ult i64 %5, %8
  br i1 %9, label %11, label %10

10:                                               ; preds = %4
  call void @llvm.lifetime.end.p0(i64 8, ptr %3) #11
  br label %21

11:                                               ; preds = %4
  %12 = load ptr, ptr %2, align 8, !tbaa !8
  %13 = load i64, ptr %3, align 8, !tbaa !46
  %14 = call i32 @int_stack_get(ptr noundef %12, i64 noundef %13)
  call void @int_stack_noop_(i32 noundef %14)
  br label %15

15:                                               ; preds = %11
  br label %16

16:                                               ; preds = %15
  br label %17

17:                                               ; preds = %16
  br label %18

18:                                               ; preds = %17
  %19 = load i64, ptr %3, align 8, !tbaa !46
  %20 = add i64 %19, 1
  store i64 %20, ptr %3, align 8, !tbaa !46
  br label %4, !llvm.loop !81

21:                                               ; preds = %10
  %22 = load ptr, ptr %2, align 8, !tbaa !8
  %23 = getelementptr inbounds nuw %struct.int_stack_t, ptr %22, i32 0, i32 2
  store i64 0, ptr %23, align 8, !tbaa !80
  %24 = load ptr, ptr %2, align 8, !tbaa !8
  %25 = getelementptr inbounds nuw %struct.int_stack_t, ptr %24, i32 0, i32 1
  store i64 0, ptr %25, align 8, !tbaa !82
  ret void
}

; Function Attrs: nounwind uwtable
define internal void @freeTree(ptr noundef %0) #0 {
  %2 = alloca ptr, align 8
  store ptr %0, ptr %2, align 8, !tbaa !8
  %3 = load ptr, ptr %2, align 8, !tbaa !8
  %4 = getelementptr inbounds nuw %struct.tree_t, ptr %3, i32 0, i32 2
  %5 = load ptr, ptr %4, align 8, !tbaa !79
  call void @free(ptr noundef %5) #11
  %6 = load ptr, ptr %2, align 8, !tbaa !8
  call void @free(ptr noundef %6) #11
  ret void
}

; Function Attrs: inlinehint nounwind uwtable
define internal void @int_stack_free(ptr noundef %0) #3 {
  %2 = alloca ptr, align 8
  store ptr %0, ptr %2, align 8, !tbaa !8
  %3 = load ptr, ptr %2, align 8, !tbaa !8
  call void @int_stack_clear(ptr noundef %3)
  %4 = load ptr, ptr %2, align 8, !tbaa !8
  %5 = getelementptr inbounds nuw %struct.int_stack_t, ptr %4, i32 0, i32 0
  %6 = load ptr, ptr %5, align 8, !tbaa !94
  call void @free(ptr noundef %6) #11
  %7 = load ptr, ptr %2, align 8, !tbaa !8
  call void @llvm.memset.p0.i64(ptr align 8 %7, i8 0, i64 32, i1 false)
  ret void
}

; Function Attrs: nounwind uwtable
define dso_local void @freeTreeGen(ptr noundef %0) #0 {
  %2 = alloca ptr, align 8
  store ptr %0, ptr %2, align 8, !tbaa !65
  %3 = load ptr, ptr %2, align 8, !tbaa !65
  %4 = getelementptr inbounds nuw %struct.treegen_s, ptr %3, i32 0, i32 1
  %5 = load ptr, ptr %4, align 8, !tbaa !70
  call void @free(ptr noundef %5) #11
  %6 = load ptr, ptr %2, align 8, !tbaa !65
  %7 = getelementptr inbounds nuw %struct.treegen_s, ptr %6, i32 0, i32 2
  call void @int_stack_free(ptr noundef %7)
  %8 = load ptr, ptr %2, align 8, !tbaa !65
  %9 = getelementptr inbounds nuw %struct.treegen_s, ptr %8, i32 0, i32 3
  %10 = load ptr, ptr %9, align 8, !tbaa !72
  call void @freeTree(ptr noundef %10)
  %11 = load ptr, ptr %2, align 8, !tbaa !65
  call void @free(ptr noundef %11) #11
  ret void
}