; Function Attrs: mustprogress nounwind willreturn uwtable
define dso_local void @freeTreeGen(ptr noundef captures(none) initializes((24, 48)) %0) local_unnamed_addr #7 {
  %2 = getelementptr inbounds nuw i8, ptr %0, i64 8
  %3 = load ptr, ptr %2, align 8, !tbaa !66
  tail call void @free(ptr noundef %3) #15
  %4 = getelementptr inbounds nuw i8, ptr %0, i64 16
  %5 = getelementptr inbounds nuw i8, ptr %0, i64 24
  tail call void @llvm.memset.p0.i64(ptr noundef nonnull align 8 dereferenceable(16) %5, i8 0, i64 16, i1 false)
  %6 = load ptr, ptr %4, align 8, !tbaa !74
  tail call void @free(ptr noundef %6) #15
  tail call void @llvm.memset.p0.i64(ptr noundef nonnull align 8 dereferenceable(32) %4, i8 0, i64 32, i1 false)
  %7 = getelementptr inbounds nuw i8, ptr %0, i64 48
  %8 = load ptr, ptr %7, align 8, !tbaa !69
  %9 = getelementptr inbounds nuw i8, ptr %8, i64 8
  %10 = load ptr, ptr %9, align 8, !tbaa !67
  tail call void @free(ptr noundef %10) #15
  tail call void @free(ptr noundef %8) #15
  tail call void @free(ptr noundef %0) #15
  ret void
}